Certificate:
    Data:
        Version: 3 (0x2)
        Serial Number: 7 (0x7)
        Signature Algorithm: sha256WithRSAEncryption
        Issuer: CN=crl-intermediate-ca, C=US/emailAddress=tj@castaglia.org, O=Castaglia, OU=Research and Development, ST=Washington
        Validity
            Not Before: Jul 13 20:28:41 2025 GMT
            Not After : Jul 12 20:28:41 2028 GMT
        Subject: CN=crl-intermediate-client, C=US/emailAddress=tj@castaglia.org, O=Castaglia, OU=Research and Development, ST=Washington
        Subject Public Key Info:
            Public Key Algorithm: rsaEncryption
                Public-Key: (2048 bit)
                Modulus:
                    00:b2:af:9f:2b:70:9e:df:b2:8a:db:b6:11:e5:f7:
                    69:88:21:f8:63:e8:29:3f:0e:f1:c3:c9:36:72:fb:
                    da:49:66:fa:91:da:1d:30:70:97:4f:d7:3b:0d:6b:
                    05:86:46:f9:ca:19:ff:61:aa:1f:9f:0c:f7:fc:80:
                    93:20:8a:8b:3c:74:dd:67:8e:3a:b9:f8:c7:0d:3b:
                    f5:3d:ac:73:55:0b:ec:2b:47:e7:b4:9f:1e:e4:7e:
                    d9:b7:43:18:fd:15:88:0f:18:ae:f6:f2:6c:ac:73:
                    fd:e8:29:a2:14:7a:19:76:9b:aa:94:01:2e:a5:cc:
                    46:73:e8:d8:bd:ae:2e:87:6d:20:af:f8:51:47:8d:
                    f5:89:1b:8d:b7:32:31:4d:9c:93:ef:bc:97:00:16:
                    a4:47:f4:45:22:ad:36:0a:1a:81:99:06:76:ea:7e:
                    60:7b:75:c7:5d:f4:16:4c:37:bf:96:d0:39:ec:36:
                    16:48:b2:c2:a1:19:15:11:84:57:5f:b9:8d:d8:73:
                    ab:5c:11:3f:7d:34:d3:af:32:1d:fd:a2:19:45:14:
                    e7:64:77:45:61:a7:c9:9b:52:66:2f:64:2a:d3:e4:
                    31:db:2b:23:a6:e1:ae:c6:30:8c:56:c5:88:d8:c7:
                    d4:58:e1:14:74:93:f8:f9:09:49:be:77:b3:ce:ba:
                    27:8f
                Exponent: 65537 (0x10001)
        X509v3 extensions:
            X509v3 Basic Constraints:
                CA:FALSE
            X509v3 Subject Alternative Name:
                DNS:www.castaglia.org, email:tj@castaglia.org, IP Address:127.0.0.1, URI:http://www.castaglia.org
            X509v3 Subject Key Identifier:
                19:27:30:6D:D0:E5:79:43:9E:BC:A8:AA:C2:C5:14:D3:88:9E:88:F0
            X509v3 Authority Key Identifier:
                keyid:9D:67:AF:C6:FF:9F:A9:84:81:4D:42:B9:98:2C:54:3D:B8:2A:53:9F
                DirName:/CN=crl-root-ca/C=US/ST=Washington/L=Seattle/O=Castaglia/OU=Research and Development/emailAddress=tj@castaglia.org
                serial:01
            Authority Information Access:
                OCSP - URI:http://castaglia.org/ocsp
            X509v3 Key Usage: critical
                Digital Signature, Key Encipherment
            X509v3 Extended Key Usage:
                TLS Web Client Authentication
    Signature Algorithm: sha256WithRSAEncryption
    Signature Value:
        66:c4:7a:0d:a0:c2:5a:0e:8f:3d:c2:c1:08:1d:de:97:92:e6:
        4a:1a:59:ba:ac:5b:2f:22:0f:25:02:9d:d0:c4:2c:85:3d:c1:
        8f:39:9f:4f:3a:3f:1d:e8:4b:53:e3:07:d2:94:92:c7:df:ac:
        da:1d:f4:74:b8:4d:2b:8e:98:20:07:63:a8:65:13:46:32:02:
        50:3f:7f:a8:02:06:b5:fe:7c:f7:5e:f6:6a:61:12:14:8b:99:
        b2:07:65:47:2d:5b:b1:2d:41:7a:06:2f:f3:33:b4:75:66:00:
        4f:86:c6:8d:2c:98:be:4d:a1:ff:ed:1f:c3:e0:1c:e3:e4:b6:
        52:ae:83:47:83:8f:0f:fc:6f:fe:e0:7c:48:ae:bd:8a:bd:7b:
        4f:b6:c8:e5:92:31:08:eb:16:4c:6f:92:16:97:19:00:03:d9:
        ca:f4:03:8b:c8:f4:96:39:c5:45:af:fb:73:b8:e5:c0:e1:f7:
        7e:75:64:0f:15:96:12:68:ea:c3:09:19:38:94:e1:47:09:00:
        8e:22:9e:e6:00:00:b0:65:6d:d4:5e:c1:7c:44:a8:3f:f4:d5:
        d3:61:20:41:59:6d:46:76:c5:cb:3a:a9:b2:bd:ee:d7:b2:6c:
        54:fd:82:8b:c6:eb:46:07:44:f4:c3:4e:3a:74:b9:8a:0d:6e:
        f6:62:98:71
-----BEGIN CERTIFICATE-----
MIIFXzCCBEegAwIBAgIBBzANBgkqhkiG9w0BAQsFADCBmDEcMBoGA1UEAxMTY3Js
LWludGVybWVkaWF0ZS1jYTELMAkGA1UEBhMCVVMxHzAdBgkqhkiG9w0BCQEWEHRq
QGNhc3RhZ2xpYS5vcmcxEjAQBgNVBAoTCUNhc3RhZ2xpYTEhMB8GA1UECxMYUmVz
ZWFyY2ggYW5kIERldmVsb3BtZW50MRMwEQYDVQQIEwpXYXNoaW5ndG9uMB4XDTI1
MDcxMzIwMjg0MVoXDTI4MDcxMjIwMjg0MVowgZwxIDAeBgNVBAMTF2NybC1pbnRl
cm1lZGlhdGUtY2xpZW50MQswCQYDVQQGEwJVUzEfMB0GCSqGSIb3DQEJARYQdGpA
Y2FzdGFnbGlhLm9yZzESMBAGA1UEChMJQ2FzdGFnbGlhMSEwHwYDVQQLExhSZXNl
YXJjaCBhbmQgRGV2ZWxvcG1lbnQxEzARBgNVBAgTCldhc2hpbmd0b24wggEiMA0G
CSqGSIb3DQEBAQUAA4IBDwAwggEKAoIBAQCyr58rcJ7fsorbthHl92mIIfhj6Ck/
DvHDyTZy+9pJZvqR2h0wcJdP1zsNawWGRvnKGf9hqh+fDPf8gJMgios8dN1njjq5
+McNO/U9rHNVC+wrR+e0nx7kftm3Qxj9FYgPGK728mysc/3oKaIUehl2m6qUAS6l
zEZz6Ni9ri6HbSCv+FFHjfWJG423MjFNnJPvvJcAFqRH9EUirTYKGoGZBnbqfmB7
dcdd9BZMN7+W0DnsNhZIssKhGRURhFdfuY3Yc6tcET99NNOvMh39ohlFFOdkd0Vh
p8mbUmYvZCrT5DHbKyOm4a7GMIxWxYjYx9RY4RR0k/j5CUm+d7POuiePAgMBAAGj
ggGsMIIBqDAJBgNVHRMEAjAAME4GA1UdEQRHMEWCEXd3dy5jYXN0YWdsaWEub3Jn
gRB0akBjYXN0YWdsaWEub3JnhwR/AAABhhhodHRwOi8vd3d3LmNhc3RhZ2xpYS5v
cmcwHQYDVR0OBBYEFBknMG3Q5XlDnryoqsLFFNOInojwMIHPBgNVHSMEgccwgcSA
FJ1nr8b/n6mEgU1CuZgsVD24KlOfoYGopIGlMIGiMRQwEgYDVQQDEwtjcmwtcm9v
dC1jYTELMAkGA1UEBhMCVVMxEzARBgNVBAgTCldhc2hpbmd0b24xEDAOBgNVBAcT
B1NlYXR0bGUxEjAQBgNVBAoTCUNhc3RhZ2xpYTEhMB8GA1UECxMYUmVzZWFyY2gg
YW5kIERldmVsb3BtZW50MR8wHQYJKoZIhvcNAQkBFhB0akBjYXN0YWdsaWEub3Jn
ggEBMDUGCCsGAQUFBwEBBCkwJzAlBggrBgEFBQcwAYYZaHR0cDovL2Nhc3RhZ2xp
YS5vcmcvb2NzcDAOBgNVHQ8BAf8EBAMCBaAwEwYDVR0lBAwwCgYIKwYBBQUHAwIw
DQYJKoZIhvcNAQELBQADggEBAGbEeg2gwloOjz3CwQgd3peS5koaWbqsWy8iDyUC
ndDELIU9wY85n086Px3oS1PjB9KUksffrNod9HS4TSuOmCAHY6hlE0YyAlA/f6gC
BrX+fPde9mphEhSLmbIHZUctW7EtQXoGL/MztHVmAE+Gxo0smL5Nof/tH8PgHOPk
tlKug0eDjw/8b/7gfEiuvYq9e0+2yOWSMQjrFkxvkhaXGQAD2cr0A4vI9JY5xUWv
+3O45cDh9351ZA8VlhJo6sMJGTiU4UcJAI4inuYAALBlbdRewXxEqD/01dNhIEFZ
bUZ2xcs6qbK97teybFT9govG60YHRPTDTjp0uYoNbvZimHE=
-----END CERTIFICATE-----
-----BEGIN PRIVATE KEY-----
MIIEvQIBADANBgkqhkiG9w0BAQEFAASCBKcwggSjAgEAAoIBAQCyr58rcJ7fsorb
thHl92mIIfhj6Ck/DvHDyTZy+9pJZvqR2h0wcJdP1zsNawWGRvnKGf9hqh+fDPf8
gJMgios8dN1njjq5+McNO/U9rHNVC+wrR+e0nx7kftm3Qxj9FYgPGK728mysc/3o
KaIUehl2m6qUAS6lzEZz6Ni9ri6HbSCv+FFHjfWJG423MjFNnJPvvJcAFqRH9EUi
rTYKGoGZBnbqfmB7dcdd9BZMN7+W0DnsNhZIssKhGRURhFdfuY3Yc6tcET99NNOv
Mh39ohlFFOdkd0Vhp8mbUmYvZCrT5DHbKyOm4a7GMIxWxYjYx9RY4RR0k/j5CUm+
d7POuiePAgMBAAECggEAAsQaNCtxoifa42zNmSA713ojJLTG0q2SC4RVXfFNHz7D
WTelpQbRKNC9nscN1lbJ7hl57RKbm7QxMIzy+hl670wl00EN4qwZtLg9Yx+Ex4fA
N6lMymx+J25ZQ2979wr6yLUKnFMDYKYJA6uFUUjUlRPyz4i3JqTjYE717/W+zaTZ
ndRvF9Ykr5LX3u4QyOgRs/GZZDJvSbcOdsktSv3KjvrY7UdvaRONuLA43hH7hjU5
Y7jD/1MBkqMPP608VA4euZvFrtzBb47Fiol/1rhOxKc9Q89Qal/FFajyL07l7p/1
d0Iy+kFzwsWlLBT4bbQr7DBM6hUO2kyQKedo/PCv7QKBgQD5jUBlGYxMLkdP/sR0
IAs/c4WLvdybj4u3ruMZOrW+U+7lLRiY/wYkj7Qx0DJH4BoR0JVfxFYgI90HTrnn
/iX7W2t6qA8ZdVfl1juEyeIBpYAis3z9olpTg8c7p9bplSrB0esf5v37J1ybPMQI
i0llUOzUSb2+hfrjT1I58A8rrQKBgQC3TZqLVrMthtrxMTCeRfSZPrGY35rv07NT
lG6eeJEphpkrgoLAKk7h9L7uoWfbVyNFA74OLtE+BXchYkY1BFl2jAwHKLtKqtKv
MGOkH6b8wkawfdvQ+SsG9BT7yEGeOhVkoDwLNH0e71kxI48P1z8wvPPYnGWzW1t/
7c2P/MdHqwKBgH5KG4KOcU/EQ9aZ6bWS2d5cigL0LIaVGHH2kXsdGQie1VEphz82
IFe0Wc6zvB5frRHC6zUx2RweyiZ+ktpy5anU1AmYrzuFBNyNlEVZHYUTykrFZsW8
udV15QetordHBAJeR403iuTlQJpXICXqx1P8pj2wq9OVXihW5hfoAuVpAoGAVurx
cUj3RYtAnkXY6/P3/AKCbB77dOVJj0Q+/93j13D/iGYmYcCuDu7i6nyWpqc3Di6s
HEWO6n3k82uKJvGdCl12Bp8F0G4X4QJs/RIVOJ1Wr7G+XeUIxg9PM+TNWJ3qLwDb
9+Q3wEd2X5qg574FNLMkXX4rq1SSmqLEapZOWGkCgYEAjEl6YC+e7w9N72R7ZwEk
WymEBbZdmZ5tVxcuX4YNXapsakaffI5xSWbcancXPECv0eD+ICAxdpejEQeC/oRL
P7KrBsvrWFirlyCkcGbo4DYZ1JnK+wr1Wanhp6pTjHYQ7cxGjUU3bpGEbMKyFAdn
RGy0DkdUfZdXmI6cmyh6Edg=
-----END PRIVATE KEY-----
