Certificate:
    Data:
        Version: 3 (0x2)
        Serial Number: 6 (0x6)
        Signature Algorithm: sha256WithRSAEncryption
        Issuer: CN=crl-intermediate-ca, C=US/emailAddress=tj@castaglia.org, O=Castaglia, OU=Research and Development, ST=Washington
        Validity
            Not Before: Jul 13 20:28:20 2025 GMT
            Not After : Jul 12 20:28:20 2028 GMT
        Subject: CN=crl-intermediate-server, C=US/emailAddress=tj@castaglia.org, O=Castaglia, OU=Research and Development, ST=Washington
        Subject Public Key Info:
            Public Key Algorithm: rsaEncryption
                Public-Key: (2048 bit)
                Modulus:
                    00:c3:4a:02:3e:cc:61:94:2e:63:40:f9:a2:60:7d:
                    11:ce:5b:b1:b3:00:c3:de:d0:88:a7:7d:94:cb:61:
                    1c:b6:c6:6e:dc:63:a7:8a:6e:19:fb:2b:e6:d7:7e:
                    79:e5:8a:33:cc:7d:13:18:9e:40:20:4e:99:06:e3:
                    89:c3:03:a3:12:f7:66:d9:ca:27:62:77:c7:25:39:
                    2b:61:4a:55:ee:09:0b:32:3f:a4:4a:2f:90:e7:73:
                    10:15:91:43:87:0b:e0:06:da:22:e3:83:58:bf:9b:
                    2b:fd:59:8d:da:c9:9a:5e:fa:ce:ad:dd:a8:ce:f4:
                    43:b9:8c:9e:07:01:24:54:c2:37:ed:91:68:7a:12:
                    15:57:8d:08:24:b5:81:a8:43:a7:62:4e:c4:0f:4e:
                    a1:51:16:85:3c:fa:ab:d9:11:93:04:ff:b6:74:74:
                    f7:d3:1f:b8:a4:b8:38:8f:4c:29:5e:4d:55:2c:d4:
                    71:c1:f4:b6:ae:90:8c:82:af:c6:b1:6e:ee:76:fb:
                    11:7b:6f:a6:2d:e2:33:3b:2a:91:be:8d:4d:fe:6a:
                    dc:ae:bd:96:af:03:45:8d:fd:21:75:6c:d2:c2:40:
                    c2:49:a6:fe:cb:c6:9d:02:5c:ef:b8:2b:44:63:bf:
                    17:47:50:95:d0:22:7e:3c:d9:7e:ef:25:6a:c0:24:
                    b0:49
                Exponent: 65537 (0x10001)
        X509v3 extensions:
            X509v3 Basic Constraints: 
                CA:FALSE
            X509v3 Subject Alternative Name: 
                DNS:www.castaglia.org, email:tj@castaglia.org, IP Address:127.0.0.1, URI:http://www.castaglia.org
            X509v3 Subject Key Identifier: 
                C6:85:A5:7F:96:E7:24:62:57:E0:3B:80:0A:1F:04:09:5D:47:F5:7A
            X509v3 Authority Key Identifier: 
                keyid:9D:67:AF:C6:FF:9F:A9:84:81:4D:42:B9:98:2C:54:3D:B8:2A:53:9F
                DirName:/CN=crl-root-ca/C=US/ST=Washington/L=Seattle/O=Castaglia/OU=Research and Development/emailAddress=tj@castaglia.org
                serial:01
            Authority Information Access: 
                OCSP - URI:http://castaglia.org/ocsp
            X509v3 Key Usage: critical
                Digital Signature, Key Encipherment
            X509v3 Extended Key Usage: 
                TLS Web Server Authentication
    Signature Algorithm: sha256WithRSAEncryption
    Signature Value:
        01:4f:26:91:2f:29:1c:68:89:9f:7b:05:a3:93:16:89:c8:27:
        8c:6e:52:45:1b:8a:e5:b3:84:c7:05:a1:11:3b:ab:7a:7b:56:
        65:6c:d5:64:38:42:c1:70:3d:78:cb:8e:fa:ae:7e:46:53:e2:
        f7:de:45:e2:25:68:59:76:c7:ca:8c:16:b8:3c:78:53:a8:39:
        0b:35:32:45:35:f6:7a:a6:15:60:78:3d:ab:63:e2:75:b7:39:
        8e:3a:6f:05:0b:49:13:61:e7:c9:da:5a:c9:92:71:56:18:52:
        76:d9:ee:0b:18:4e:03:f5:51:f3:0c:46:27:9b:5e:6b:51:ea:
        5b:1f:9e:de:0f:61:54:e0:34:04:73:b3:9b:bf:7a:60:8d:69:
        06:04:e0:33:6e:1f:aa:82:37:e5:2a:41:fc:68:69:d3:ad:b7:
        d5:74:b4:bb:4f:86:dd:f4:73:6e:df:3e:21:84:f0:12:b0:0a:
        6e:83:a7:25:88:97:1c:75:0d:4b:c6:4a:21:7c:d5:8f:08:3b:
        7c:07:d0:16:11:d7:b4:e0:a2:23:e5:48:af:b8:93:cd:1b:51:
        53:1d:95:4f:c7:13:f7:3c:6d:cc:c4:e4:fa:d5:c9:4e:bd:da:
        b4:af:5c:58:83:78:fb:e0:60:20:15:c9:8d:dd:f8:43:71:5d:
        a8:57:e5:28
-----BEGIN CERTIFICATE-----
MIIFXzCCBEegAwIBAgIBBjANBgkqhkiG9w0BAQsFADCBmDEcMBoGA1UEAxMTY3Js
LWludGVybWVkaWF0ZS1jYTELMAkGA1UEBhMCVVMxHzAdBgkqhkiG9w0BCQEWEHRq
QGNhc3RhZ2xpYS5vcmcxEjAQBgNVBAoTCUNhc3RhZ2xpYTEhMB8GA1UECxMYUmVz
ZWFyY2ggYW5kIERldmVsb3BtZW50MRMwEQYDVQQIEwpXYXNoaW5ndG9uMB4XDTI1
MDcxMzIwMjgyMFoXDTI4MDcxMjIwMjgyMFowgZwxIDAeBgNVBAMTF2NybC1pbnRl
cm1lZGlhdGUtc2VydmVyMQswCQYDVQQGEwJVUzEfMB0GCSqGSIb3DQEJARYQdGpA
Y2FzdGFnbGlhLm9yZzESMBAGA1UEChMJQ2FzdGFnbGlhMSEwHwYDVQQLExhSZXNl
YXJjaCBhbmQgRGV2ZWxvcG1lbnQxEzARBgNVBAgTCldhc2hpbmd0b24wggEiMA0G
CSqGSIb3DQEBAQUAA4IBDwAwggEKAoIBAQDDSgI+zGGULmNA+aJgfRHOW7GzAMPe
0IinfZTLYRy2xm7cY6eKbhn7K+bXfnnlijPMfRMYnkAgTpkG44nDA6MS92bZyidi
d8clOSthSlXuCQsyP6RKL5DncxAVkUOHC+AG2iLjg1i/myv9WY3ayZpe+s6t3ajO
9EO5jJ4HASRUwjftkWh6EhVXjQgktYGoQ6diTsQPTqFRFoU8+qvZEZME/7Z0dPfT
H7ikuDiPTCleTVUs1HHB9LaukIyCr8axbu52+xF7b6Yt4jM7KpG+jU3+atyuvZav
A0WN/SF1bNLCQMJJpv7Lxp0CXO+4K0RjvxdHUJXQIn482X7vJWrAJLBJAgMBAAGj
ggGsMIIBqDAJBgNVHRMEAjAAME4GA1UdEQRHMEWCEXd3dy5jYXN0YWdsaWEub3Jn
gRB0akBjYXN0YWdsaWEub3JnhwR/AAABhhhodHRwOi8vd3d3LmNhc3RhZ2xpYS5v
cmcwHQYDVR0OBBYEFMaFpX+W5yRiV+A7gAofBAldR/V6MIHPBgNVHSMEgccwgcSA
FJ1nr8b/n6mEgU1CuZgsVD24KlOfoYGopIGlMIGiMRQwEgYDVQQDEwtjcmwtcm9v
dC1jYTELMAkGA1UEBhMCVVMxEzARBgNVBAgTCldhc2hpbmd0b24xEDAOBgNVBAcT
B1NlYXR0bGUxEjAQBgNVBAoTCUNhc3RhZ2xpYTEhMB8GA1UECxMYUmVzZWFyY2gg
YW5kIERldmVsb3BtZW50MR8wHQYJKoZIhvcNAQkBFhB0akBjYXN0YWdsaWEub3Jn
ggEBMDUGCCsGAQUFBwEBBCkwJzAlBggrBgEFBQcwAYYZaHR0cDovL2Nhc3RhZ2xp
YS5vcmcvb2NzcDAOBgNVHQ8BAf8EBAMCBaAwEwYDVR0lBAwwCgYIKwYBBQUHAwEw
DQYJKoZIhvcNAQELBQADggEBAAFPJpEvKRxoiZ97BaOTFonIJ4xuUkUbiuWzhMcF
oRE7q3p7VmVs1WQ4QsFwPXjLjvqufkZT4vfeReIlaFl2x8qMFrg8eFOoOQs1MkU1
9nqmFWB4Patj4nW3OY46bwULSRNh58naWsmScVYYUnbZ7gsYTgP1UfMMRiebXmtR
6lsfnt4PYVTgNARzs5u/emCNaQYE4DNuH6qCN+UqQfxoadOtt9V0tLtPht30c27f
PiGE8BKwCm6DpyWIlxx1DUvGSiF81Y8IO3wH0BYR17TgoiPlSK+4k80bUVMdlU/H
E/c8bczE5PrVyU692rSvXFiDePvgYCAVyY3d+ENxXahX5Sg=
-----END CERTIFICATE-----
-----BEGIN PRIVATE KEY-----
MIIEvQIBADANBgkqhkiG9w0BAQEFAASCBKcwggSjAgEAAoIBAQDDSgI+zGGULmNA
+aJgfRHOW7GzAMPe0IinfZTLYRy2xm7cY6eKbhn7K+bXfnnlijPMfRMYnkAgTpkG
44nDA6MS92bZyidid8clOSthSlXuCQsyP6RKL5DncxAVkUOHC+AG2iLjg1i/myv9
WY3ayZpe+s6t3ajO9EO5jJ4HASRUwjftkWh6EhVXjQgktYGoQ6diTsQPTqFRFoU8
+qvZEZME/7Z0dPfTH7ikuDiPTCleTVUs1HHB9LaukIyCr8axbu52+xF7b6Yt4jM7
KpG+jU3+atyuvZavA0WN/SF1bNLCQMJJpv7Lxp0CXO+4K0RjvxdHUJXQIn482X7v
JWrAJLBJAgMBAAECggEANOfHXPDsnILGo9MdMMuhN8jyhp518daHtuxYE5L+/usa
HH2o5WE3i6qUkpuydUNwDf1yX3B7yeTRIyMgbqL9GkXI6MaRzeTKICTxQh2r0t1D
Wb0RCoIBXRp4aIdehmbqraCJ5B3wvJPSooOQ4Q1N015aAJM0yMA22r0kEJy4FXfA
hdhuV5gaseX49/FNmBkzC+n4ZEJg6q/m4DeZF20VwGGtUvqgzDNSwbjSoExTut2l
PEBit8PulOG87At4Ml7j656WlWlLXWIopJN+NUAMiEo5+Pt+fm8ASb2em+fQ7Hj7
g6rS5+oD7bhzFaeJwtjkKKX2M0WIq1mZhhZPBmWfKwKBgQD23yRO5Hf0KbpsLwka
abWKukstj1XS+X3AKFI85QEELFyMFeB+zvrFIVBNDB5cLnW/d1U1N+dwQW34diL6
XXtffgkwKM8FDPazdWAreMUAB1I7HawVd0lgvuThZq7RIKphWY4+7zLcyT6i02j7
uSioroWya3vSj0vkfgDGhGGEAwKBgQDKgpewy3jGSh/hxReiz2coQTFXgCBpgo94
ALs+3475E+vvQ6OUaEZGHHfpppBCq0xiK5Bz/CHCY1q+IF7MZv9bLCdDXStfAESd
V6SRRfzhAQqgaP+wyV8PETTlP0NIVHva9nNVw5rTWoOlchV0AtuZa5v21Wrw9lt+
BuDfBgG2wwKBgQDqsm9RNXE4xeb+bKUJ4E+AKOXJ1YfxP9GmOm8ch1Y1AnuljjLU
O7A6cxZleUzvtBerRCbUpmY32WxUFvPf87mTqj3P9CwEEDQFnmQkT/dxtIQfwXDV
I4e2GyV7iGRQWu7ACCTsfflr30LWB4i6L2iRHQHsArVAE41CF+xizn3qwwKBgCJy
jHMaaXTxbvLsn9SmCxoh3M7RkLHh752uIivTw3JDHUMZ8l1wT2Plu9AW8TsmAFxC
pNPV87gpRmpI/1ctvgo4PIWM96+1T/ajze6YRSfREYmv0q6z0mOxvZmxZTSMinT4
ry3LlC6XmwUtntCZG9nBIEqgiwxqG64YZXAKiYgZAoGATmIL4t0fLAzAcQTuWMOQ
dmkAvJ8ZTkpUEWQxpqBEhwvv8mjep/ex/L5TuFE7kahg0Wgy0piBENCTv8csR2Nu
8FocICp2x+GQOLFgKW7nKcYXYfKdsvKFLHegAPKseTfYIILo7ANhW9s5dXEiKhna
Q61Qt/QD3fgavdgfHdQi8GE=
-----END PRIVATE KEY-----
