Certificate:
    Data:
        Version: 3 (0x2)
        Serial Number: 1 (0x1)
        Signature Algorithm: sha256WithRSAEncryption
        Issuer: CN=crl-root-ca, C=US, ST=Washington, L=Seattle, O=Castaglia, OU=Research and Development/emailAddress=tj@castaglia.org
        Validity
            Not Before: Jul 13 16:48:07 2025 GMT
            Not After : Jul 12 16:48:07 2028 GMT
        Subject: CN=crl-intermediate-ca, C=US/emailAddress=tj@castaglia.org, O=Castaglia, OU=Research and Development, ST=Washington
        Subject Public Key Info:
            Public Key Algorithm: rsaEncryption
                Public-Key: (2048 bit)
                Modulus:
                    00:b7:5a:6a:1c:02:5e:70:c8:43:1f:b3:60:84:18:
                    9c:b5:41:b5:b9:06:ad:03:cc:a1:06:7c:7a:eb:6e:
                    96:32:c0:fc:48:19:9c:9d:ec:f9:a8:da:3c:b4:52:
                    ec:5b:ab:6b:7f:20:09:70:d3:7c:47:11:f2:6e:88:
                    f7:6a:d9:5c:68:13:d9:5b:2a:56:8c:fb:ad:4f:fc:
                    66:92:b6:fe:92:c9:9b:14:24:e7:cc:9f:78:ba:47:
                    37:8e:41:66:6f:3b:76:3c:35:f4:31:a5:6e:9e:50:
                    83:c2:b1:36:a8:d1:5f:7c:f0:1d:bf:84:b7:c3:88:
                    d0:64:45:44:aa:67:77:54:96:a5:2f:51:09:20:2c:
                    0e:0e:05:64:90:10:d3:19:e0:ab:b8:06:f2:d7:eb:
                    fd:46:d7:d4:c3:20:89:0d:fd:5d:2c:11:a9:70:6b:
                    fe:83:d5:6f:58:aa:be:8f:ec:bc:b3:f0:54:ae:44:
                    c6:c9:2f:b3:5b:9c:f2:4a:63:de:d1:50:e4:0f:2d:
                    6e:b1:f1:34:de:4e:78:8b:74:06:17:86:40:69:65:
                    80:2d:d7:2a:6d:5b:f3:61:94:51:79:ba:75:57:f8:
                    a5:80:0e:73:46:ef:f6:8f:24:6e:bc:b8:77:57:eb:
                    7b:56:a6:73:86:0c:a7:da:24:77:2f:3d:32:9b:56:
                    f1:ad
                Exponent: 65537 (0x10001)
        X509v3 extensions:
            X509v3 Basic Constraints:
                CA:TRUE
            X509v3 Subject Alternative Name:
                DNS:castaglia.org, email:tj@castaglia.org, IP Address:127.0.0.1, URI:http://www.castaglia.org
            X509v3 Subject Key Identifier:
                9D:67:AF:C6:FF:9F:A9:84:81:4D:42:B9:98:2C:54:3D:B8:2A:53:9F
            X509v3 Authority Key Identifier:
                keyid:62:B8:68:97:8F:CD:63:B7:90:D6:31:24:C9:09:A8:B6:95:8B:DD:F2
                DirName:/CN=crl-root-ca/C=US/ST=Washington/L=Seattle/O=Castaglia/OU=Research and Development/emailAddress=tj@castaglia.org
                serial:00
            Authority Information Access:
                OCSP - URI:http://castaglia.org/ocsp
            X509v3 Key Usage: critical
                Certificate Sign, CRL Sign
    Signature Algorithm: sha256WithRSAEncryption
    Signature Value:
        39:6b:f2:80:45:ae:f9:db:53:b2:34:1e:73:73:3d:51:4c:ee:
        bb:18:eb:b7:a8:3b:8f:ea:e0:94:91:0a:df:67:1e:e5:a6:72:
        5b:78:2d:1e:9d:70:6d:dc:83:5b:ae:ff:c4:48:64:cb:1a:a4:
        a7:3d:49:4b:c5:d1:3e:91:e1:a1:92:e0:2c:e3:49:28:5d:ba:
        c2:8f:54:79:16:19:b5:43:49:7d:ca:76:66:57:73:8c:b8:59:
        53:3d:d0:f5:9c:c8:db:d4:d9:da:25:5e:91:af:56:90:88:cc:
        59:13:26:35:11:eb:8e:ea:e8:6e:b4:2c:8e:57:90:64:e4:36:
        d2:e2:3a:8e:8b:ff:7a:bc:9c:66:b3:e0:6b:ea:83:ad:cd:71:
        54:a7:88:7c:a7:ed:4d:2e:16:61:68:eb:e8:98:29:d5:3a:c0:
        85:ad:c1:90:78:42:69:68:31:5d:22:d6:59:a9:80:1a:40:bb:
        e7:6c:71:4c:75:d1:73:55:4d:bd:fb:5d:4b:42:36:11:24:dc:
        36:4f:86:54:b2:85:d7:d1:40:45:1e:db:70:eb:d1:1d:ef:54:
        89:16:1d:9e:af:fc:2d:3d:0e:fe:0c:85:95:58:4b:37:0a:ce:
        57:34:f8:67:e2:75:68:b1:95:ff:6c:af:15:d5:f7:bb:a7:46:
        4f:6f:3c:fa
-----BEGIN CERTIFICATE-----
MIIFTzCCBDegAwIBAgIBATANBgkqhkiG9w0BAQsFADCBojEUMBIGA1UEAxMLY3Js
LXJvb3QtY2ExCzAJBgNVBAYTAlVTMRMwEQYDVQQIEwpXYXNoaW5ndG9uMRAwDgYD
VQQHEwdTZWF0dGxlMRIwEAYDVQQKEwlDYXN0YWdsaWExITAfBgNVBAsTGFJlc2Vh
cmNoIGFuZCBEZXZlbG9wbWVudDEfMB0GCSqGSIb3DQEJARYQdGpAY2FzdGFnbGlh
Lm9yZzAeFw0yNTA3MTMxNjQ4MDdaFw0yODA3MTIxNjQ4MDdaMIGYMRwwGgYDVQQD
ExNjcmwtaW50ZXJtZWRpYXRlLWNhMQswCQYDVQQGEwJVUzEfMB0GCSqGSIb3DQEJ
ARYQdGpAY2FzdGFnbGlhLm9yZzESMBAGA1UEChMJQ2FzdGFnbGlhMSEwHwYDVQQL
ExhSZXNlYXJjaCBhbmQgRGV2ZWxvcG1lbnQxEzARBgNVBAgTCldhc2hpbmd0b24w
ggEiMA0GCSqGSIb3DQEBAQUAA4IBDwAwggEKAoIBAQC3WmocAl5wyEMfs2CEGJy1
QbW5Bq0DzKEGfHrrbpYywPxIGZyd7Pmo2jy0Uuxbq2t/IAlw03xHEfJuiPdq2Vxo
E9lbKlaM+61P/GaStv6SyZsUJOfMn3i6RzeOQWZvO3Y8NfQxpW6eUIPCsTao0V98
8B2/hLfDiNBkRUSqZ3dUlqUvUQkgLA4OBWSQENMZ4Ku4BvLX6/1G19TDIIkN/V0s
Ealwa/6D1W9Yqr6P7Lyz8FSuRMbJL7NbnPJKY97RUOQPLW6x8TTeTniLdAYXhkBp
ZYAt1yptW/NhlFF5unVX+KWADnNG7/aPJG68uHdX63tWpnOGDKfaJHcvPTKbVvGt
AgMBAAGjggGWMIIBkjAMBgNVHRMEBTADAQH/MEoGA1UdEQRDMEGCDWNhc3RhZ2xp
YS5vcmeBEHRqQGNhc3RhZ2xpYS5vcmeHBH8AAAGGGGh0dHA6Ly93d3cuY2FzdGFn
bGlhLm9yZzAdBgNVHQ4EFgQUnWevxv+fqYSBTUK5mCxUPbgqU58wgc8GA1UdIwSB
xzCBxIAUYrhol4/NY7eQ1jEkyQmotpWL3fKhgaikgaUwgaIxFDASBgNVBAMTC2Ny
bC1yb290LWNhMQswCQYDVQQGEwJVUzETMBEGA1UECBMKV2FzaGluZ3RvbjEQMA4G
A1UEBxMHU2VhdHRsZTESMBAGA1UEChMJQ2FzdGFnbGlhMSEwHwYDVQQLExhSZXNl
YXJjaCBhbmQgRGV2ZWxvcG1lbnQxHzAdBgkqhkiG9w0BCQEWEHRqQGNhc3RhZ2xp
YS5vcmeCAQAwNQYIKwYBBQUHAQEEKTAnMCUGCCsGAQUFBzABhhlodHRwOi8vY2Fz
dGFnbGlhLm9yZy9vY3NwMA4GA1UdDwEB/wQEAwIBBjANBgkqhkiG9w0BAQsFAAOC
AQEAOWvygEWu+dtTsjQec3M9UUzuuxjrt6g7j+rglJEK32ce5aZyW3gtHp1wbdyD
W67/xEhkyxqkpz1JS8XRPpHhoZLgLONJKF26wo9UeRYZtUNJfcp2ZldzjLhZUz3Q
9ZzI29TZ2iVeka9WkIjMWRMmNRHrjurobrQsjleQZOQ20uI6jov/erycZrPga+qD
rc1xVKeIfKftTS4WYWjr6Jgp1TrAha3BkHhCaWgxXSLWWamAGkC752xxTHXRc1VN
vftdS0I2ESTcNk+GVLKF19FARR7bcOvRHe9UiRYdnq/8LT0O/gyFlVhLNwrOVzT4
Z+J1aLGV/2yvFdX3u6dGT288+g==
-----END CERTIFICATE-----
Certificate:
    Data:
        Version: 3 (0x2)
        Serial Number: 0 (0x0)
        Signature Algorithm: sha256WithRSAEncryption
        Issuer: CN = crl-root-ca, C = US, ST = Washington, L = Seattle, O = Castaglia, OU = Research and Development, emailAddress = tj@castaglia.org
        Validity
            Not Before: Jul 13 16:46:54 2025 GMT
            Not After : Jul 12 16:46:54 2028 GMT
        Subject: CN = crl-root-ca, C = US, ST = Washington, L = Seattle, O = Castaglia, OU = Research and Development, emailAddress = tj@castaglia.org
        Subject Public Key Info:
            Public Key Algorithm: rsaEncryption
                Public-Key: (2048 bit)
                Modulus:
                    00:bd:db:3f:0b:bf:3f:ab:39:a5:af:24:46:db:32:
                    62:dc:25:27:10:5e:35:d4:f0:59:2b:90:7c:62:e4:
                    9c:9f:51:b9:15:8d:5e:ee:47:ea:d2:e4:a6:92:d3:
                    ea:e5:08:6a:87:b7:76:b9:76:ce:23:9e:17:75:2f:
                    b7:5a:2c:d6:b7:e3:9e:0c:ef:7a:3e:aa:f4:77:da:
                    07:56:e7:c4:dd:de:40:89:2f:52:3b:92:d7:31:6b:
                    04:54:83:98:cf:01:8a:f2:c7:88:87:b5:35:e0:8d:
                    3c:bb:59:b9:45:05:d7:c7:ee:55:2f:98:11:08:7e:
                    ae:84:cf:d3:4d:f2:67:43:19:58:e2:78:40:b8:71:
                    b5:a1:a3:18:5c:94:ae:46:20:a2:ce:9b:c3:42:c7:
                    3b:2c:47:a2:c3:2f:63:78:fe:cd:62:eb:40:20:5f:
                    70:70:a4:66:e1:4b:d3:44:3d:64:01:d1:64:a9:b0:
                    dc:e3:27:b0:9f:10:9b:a4:bf:03:6c:84:67:e7:04:
                    ee:1e:47:f0:ee:1d:84:e7:19:e3:54:63:45:64:de:
                    ca:50:40:b9:db:c2:b9:d0:46:58:dc:b8:4b:ba:5a:
                    e1:8b:fe:42:34:de:c5:a7:84:a5:a7:26:0d:2a:1c:
                    54:e1:21:a2:8d:bb:3a:88:b4:ef:d5:ed:b5:9f:52:
                    a7:6b
                Exponent: 65537 (0x10001)
        X509v3 extensions:
            X509v3 Basic Constraints:
                CA:TRUE
            X509v3 Subject Alternative Name:
                DNS:castaglia.org, email:tj@castaglia.org, IP Address:127.0.0.1, URI:http://www.castaglia.org
            X509v3 Subject Key Identifier:
                62:B8:68:97:8F:CD:63:B7:90:D6:31:24:C9:09:A8:B6:95:8B:DD:F2
            X509v3 Authority Key Identifier:
                keyid:62:B8:68:97:8F:CD:63:B7:90:D6:31:24:C9:09:A8:B6:95:8B:DD:F2
                DirName:/CN=crl-root-ca/C=US/ST=Washington/L=Seattle/O=Castaglia/OU=Research and Development/emailAddress=tj@castaglia.org
                serial:00
            Authority Information Access:
                OCSP - URI:http://castaglia.org/ocsp
            X509v3 Key Usage: critical
                Certificate Sign, CRL Sign
    Signature Algorithm: sha256WithRSAEncryption
    Signature Value:
        11:84:45:07:44:66:ba:3b:54:cf:5a:6e:f2:4e:1d:4f:36:68:
        31:68:df:e9:c3:5f:6d:cb:fd:64:3a:e7:3c:d1:3f:ea:12:3b:
        f2:cf:19:b7:33:c8:03:a0:04:08:cf:45:e4:aa:d7:3b:56:2d:
        10:7e:4d:ba:0a:d8:a5:b2:48:7f:ef:1d:3c:35:ba:3e:82:f2:
        bf:08:f3:bd:a6:29:93:81:a5:36:15:b2:41:d6:87:15:51:d3:
        ec:1e:41:f7:c2:da:73:b8:30:ba:29:05:aa:14:56:07:04:25:
        fd:be:79:05:69:ba:97:38:14:b9:97:e6:16:63:d5:00:bd:00:
        1b:88:19:58:50:6c:ff:ec:b3:da:ab:d8:62:90:eb:54:dd:10:
        63:66:27:48:81:44:93:45:e6:55:cb:0d:a2:7d:6c:b9:78:c0:
        5d:29:b0:1f:67:0d:cc:2b:93:5e:14:d2:d8:7b:23:40:02:47:
        95:93:19:85:a1:ce:3e:bc:68:f1:8c:9a:0f:af:ed:6f:f9:da:
        56:60:33:ec:a8:c5:a0:cb:73:bc:ad:96:30:55:fb:3f:76:f7:
        15:4e:38:4b:c1:87:19:a1:9f:15:3b:af:25:51:f6:7d:2c:25:
        dc:40:a6:83:aa:36:4b:27:6c:94:99:45:a4:d6:6e:a5:26:bd:
        dc:b1:97:32
-----BEGIN CERTIFICATE-----
MIIFWTCCBEGgAwIBAgIBADANBgkqhkiG9w0BAQsFADCBojEUMBIGA1UEAxMLY3Js
LXJvb3QtY2ExCzAJBgNVBAYTAlVTMRMwEQYDVQQIEwpXYXNoaW5ndG9uMRAwDgYD
VQQHEwdTZWF0dGxlMRIwEAYDVQQKEwlDYXN0YWdsaWExITAfBgNVBAsTGFJlc2Vh
cmNoIGFuZCBEZXZlbG9wbWVudDEfMB0GCSqGSIb3DQEJARYQdGpAY2FzdGFnbGlh
Lm9yZzAeFw0yNTA3MTMxNjQ2NTRaFw0yODA3MTIxNjQ2NTRaMIGiMRQwEgYDVQQD
Ewtjcmwtcm9vdC1jYTELMAkGA1UEBhMCVVMxEzARBgNVBAgTCldhc2hpbmd0b24x
EDAOBgNVBAcTB1NlYXR0bGUxEjAQBgNVBAoTCUNhc3RhZ2xpYTEhMB8GA1UECxMY
UmVzZWFyY2ggYW5kIERldmVsb3BtZW50MR8wHQYJKoZIhvcNAQkBFhB0akBjYXN0
YWdsaWEub3JnMIIBIjANBgkqhkiG9w0BAQEFAAOCAQ8AMIIBCgKCAQEAvds/C78/
qzmlryRG2zJi3CUnEF411PBZK5B8YuScn1G5FY1e7kfq0uSmktPq5Qhqh7d2uXbO
I54XdS+3WizWt+OeDO96Pqr0d9oHVufE3d5AiS9SO5LXMWsEVIOYzwGK8seIh7U1
4I08u1m5RQXXx+5VL5gRCH6uhM/TTfJnQxlY4nhAuHG1oaMYXJSuRiCizpvDQsc7
LEeiwy9jeP7NYutAIF9wcKRm4UvTRD1kAdFkqbDc4yewnxCbpL8DbIRn5wTuHkfw
7h2E5xnjVGNFZN7KUEC528K50EZY3LhLulrhi/5CNN7Fp4SlpyYNKhxU4SGijbs6
iLTv1e21n1KnawIDAQABo4IBljCCAZIwDAYDVR0TBAUwAwEB/zBKBgNVHREEQzBB
gg1jYXN0YWdsaWEub3JngRB0akBjYXN0YWdsaWEub3JnhwR/AAABhhhodHRwOi8v
d3d3LmNhc3RhZ2xpYS5vcmcwHQYDVR0OBBYEFGK4aJePzWO3kNYxJMkJqLaVi93y
MIHPBgNVHSMEgccwgcSAFGK4aJePzWO3kNYxJMkJqLaVi93yoYGopIGlMIGiMRQw
EgYDVQQDEwtjcmwtcm9vdC1jYTELMAkGA1UEBhMCVVMxEzARBgNVBAgTCldhc2hp
bmd0b24xEDAOBgNVBAcTB1NlYXR0bGUxEjAQBgNVBAoTCUNhc3RhZ2xpYTEhMB8G
A1UECxMYUmVzZWFyY2ggYW5kIERldmVsb3BtZW50MR8wHQYJKoZIhvcNAQkBFhB0
akBjYXN0YWdsaWEub3JnggEAMDUGCCsGAQUFBwEBBCkwJzAlBggrBgEFBQcwAYYZ
aHR0cDovL2Nhc3RhZ2xpYS5vcmcvb2NzcDAOBgNVHQ8BAf8EBAMCAQYwDQYJKoZI
hvcNAQELBQADggEBABGERQdEZro7VM9abvJOHU82aDFo3+nDX23L/WQ65zzRP+oS
O/LPGbczyAOgBAjPReSq1ztWLRB+TboK2KWySH/vHTw1uj6C8r8I872mKZOBpTYV
skHWhxVR0+weQffC2nO4MLopBaoUVgcEJf2+eQVpupc4FLmX5hZj1QC9ABuIGVhQ
bP/ss9qr2GKQ61TdEGNmJ0iBRJNF5lXLDaJ9bLl4wF0psB9nDcwrk14U0th7I0AC
R5WTGYWhzj68aPGMmg+v7W/52lZgM+yoxaDLc7ytljBV+z929xVOOEvBhxmhnxU7
ryVR9n0sJdxApoOqNksnbJSZRaTWbqUmvdyxlzI=
-----END CERTIFICATE-----
